target datalayout = "e-m:e-p270:32:32-p271:32:32-p272:64:64-i64:64-i128:128-f80:128-n8:16:32:64-S128"
target triple = "x86_64-unknown-linux-gnu"

%"class.OpenImageIO_v2_6_0::ImageSpec" = type { i32, i32, i32, i32, i32, i32, i32, i32, i32, i32, i32, i32, i32, i32, i32, i32, %"struct.OpenImageIO_v2_6_0::TypeDesc", %"class.std::vector", %"class.std::vector.0", i32, i32, i8, %"class.OpenImageIO_v2_6_0::ParamValueList" }
%"struct.OpenImageIO_v2_6_0::TypeDesc" = type { i8, i8, i8, i8, i32 }
%"class.std::vector" = type { %"struct.std::_Vector_base" }
%"struct.std::_Vector_base" = type { %"struct.std::_Vector_base<OpenImageIO_v2_6_0::TypeDesc, std::allocator<OpenImageIO_v2_6_0::TypeDesc>>::_Vector_impl" }
%"struct.std::_Vector_base<OpenImageIO_v2_6_0::TypeDesc, std::allocator<OpenImageIO_v2_6_0::TypeDesc>>::_Vector_impl" = type { %"struct.std::_Vector_base<OpenImageIO_v2_6_0::TypeDesc, std::allocator<OpenImageIO_v2_6_0::TypeDesc>>::_Vector_impl_data" }
%"struct.std::_Vector_base<OpenImageIO_v2_6_0::TypeDesc, std::allocator<OpenImageIO_v2_6_0::TypeDesc>>::_Vector_impl_data" = type { ptr, ptr, ptr }
%"class.std::vector.0" = type { %"struct.std::_Vector_base.1" }
%"struct.std::_Vector_base.1" = type { %"struct.std::_Vector_base<std::__cxx11::basic_string<char>, std::allocator<std::__cxx11::basic_string<char>>>::_Vector_impl" }
%"struct.std::_Vector_base<std::__cxx11::basic_string<char>, std::allocator<std::__cxx11::basic_string<char>>>::_Vector_impl" = type { %"struct.std::_Vector_base<std::__cxx11::basic_string<char>, std::allocator<std::__cxx11::basic_string<char>>>::_Vector_impl_data" }
%"struct.std::_Vector_base<std::__cxx11::basic_string<char>, std::allocator<std::__cxx11::basic_string<char>>>::_Vector_impl_data" = type { ptr, ptr, ptr }
%"class.OpenImageIO_v2_6_0::ParamValueList" = type { %"class.std::vector.5" }
%"class.std::vector.5" = type { %"struct.std::_Vector_base.6" }
%"struct.std::_Vector_base.6" = type { %"struct.std::_Vector_base<OpenImageIO_v2_6_0::ParamValue, std::allocator<OpenImageIO_v2_6_0::ParamValue>>::_Vector_impl" }
%"struct.std::_Vector_base<OpenImageIO_v2_6_0::ParamValue, std::allocator<OpenImageIO_v2_6_0::ParamValue>>::_Vector_impl" = type { %"struct.std::_Vector_base<OpenImageIO_v2_6_0::ParamValue, std::allocator<OpenImageIO_v2_6_0::ParamValue>>::_Vector_impl_data" }
%"struct.std::_Vector_base<OpenImageIO_v2_6_0::ParamValue, std::allocator<OpenImageIO_v2_6_0::ParamValue>>::_Vector_impl_data" = type { ptr, ptr, ptr }

; Function Attrs: mustprogress nounwind uwtable
define linkonce_odr void @_ZN18OpenImageIO_v2_6_08TypeDescC2ENS0_8BASETYPEENS0_9AGGREGATEENS0_12VECSEMANTICSEi(ptr noundef nonnull align 4 dereferenceable(8) %this, i32 noundef %btype, i32 noundef %agg, i32 noundef %semantics, i32 noundef %arraylen) unnamed_addr #1 comdat align 2 {
entry:
  %this.addr = alloca ptr, align 8
  %btype.addr = alloca i32, align 4
  %agg.addr = alloca i32, align 4
  %semantics.addr = alloca i32, align 4
  %arraylen.addr = alloca i32, align 4
  store ptr %this, ptr %this.addr, align 8
  store i32 %btype, ptr %btype.addr, align 4
  store i32 %agg, ptr %agg.addr, align 4
  store i32 %semantics, ptr %semantics.addr, align 4
  store i32 %arraylen, ptr %arraylen.addr, align 4
  %this1 = load ptr, ptr %this.addr, align 8
  %basetype = getelementptr inbounds %"struct.OpenImageIO_v2_6_0::TypeDesc", ptr %this1, i32 0, i32 0
  %0 = load i32, ptr %btype.addr, align 4
  %conv = trunc i32 %0 to i8
  store i8 %conv, ptr %basetype, align 4
  %aggregate = getelementptr inbounds %"struct.OpenImageIO_v2_6_0::TypeDesc", ptr %this1, i32 0, i32 1
  %1 = load i32, ptr %agg.addr, align 4
  %conv2 = trunc i32 %1 to i8
  store i8 %conv2, ptr %aggregate, align 1
  %vecsemantics = getelementptr inbounds %"struct.OpenImageIO_v2_6_0::TypeDesc", ptr %this1, i32 0, i32 2
  %2 = load i32, ptr %semantics.addr, align 4
  %conv3 = trunc i32 %2 to i8
  store i8 %conv3, ptr %vecsemantics, align 2
  %reserved = getelementptr inbounds %"struct.OpenImageIO_v2_6_0::TypeDesc", ptr %this1, i32 0, i32 3
  store i8 0, ptr %reserved, align 1
  %arraylen4 = getelementptr inbounds %"struct.OpenImageIO_v2_6_0::TypeDesc", ptr %this1, i32 0, i32 4
  %3 = load i32, ptr %arraylen.addr, align 4
  store i32 %3, ptr %arraylen4, align 4
  ret void
}

; Function Attrs: mustprogress uwtable
define hidden noundef zeroext i1 @_ZN18OpenImageIO_v2_6_08ICOInput4openERKNSt7__cxx1112basic_stringIcSt11char_traitsIcESaIcEEERNS_9ImageSpecE(ptr noundef nonnull align 8 dereferenceable(312) %this, ptr noundef nonnull align 8 dereferenceable(32) %name, ptr noundef nonnull align 8 dereferenceable(160) %newspec) unnamed_addr #6 align 2 personality ptr @__gxx_personality_v0 {
entry:
  %this.addr = alloca ptr, align 8
  %name.addr = alloca ptr, align 8
  %newspec.addr = alloca ptr, align 8
  %emptyconfig = alloca %"class.OpenImageIO_v2_6_0::ImageSpec", align 8
  %agg.tmp = alloca %"struct.OpenImageIO_v2_6_0::TypeDesc", align 4
  %exn.slot = alloca ptr, align 8
  %ehselector.slot = alloca i32, align 4
  store ptr %this, ptr %this.addr, align 8
  store ptr %name, ptr %name.addr, align 8
  store ptr %newspec, ptr %newspec.addr, align 8
  %this1 = load ptr, ptr %this.addr, align 8
  call void @_ZN18OpenImageIO_v2_6_08TypeDescC2ENS0_8BASETYPEENS0_9AGGREGATEENS0_12VECSEMANTICSEi(ptr noundef nonnull align 4 dereferenceable(8) %agg.tmp, i32 noundef 0, i32 noundef 1, i32 noundef 0, i32 noundef 0) #5
  call void @_ZN18OpenImageIO_v2_6_09ImageSpecC1ENS_8TypeDescE(ptr noundef nonnull align 8 dereferenceable(160) %emptyconfig, ptr noundef %agg.tmp) #5
  %0 = load ptr, ptr %name.addr, align 8
  %1 = load ptr, ptr %newspec.addr, align 8
  %call = invoke noundef zeroext i1 @_ZN18OpenImageIO_v2_6_08ICOInput4openERKNSt7__cxx1112basic_stringIcSt11char_traitsIcESaIcEEERNS_9ImageSpecERKS9_(ptr noundef nonnull align 8 dereferenceable(312) %this1, ptr noundef nonnull align 8 dereferenceable(32) %0, ptr noundef nonnull align 8 dereferenceable(160) %1, ptr noundef nonnull align 8 dereferenceable(160) %emptyconfig)
          to label %invoke.cont unwind label %lpad

invoke.cont:                                      ; preds = %entry
  call void @_ZN18OpenImageIO_v2_6_09ImageSpecD2Ev(ptr noundef nonnull align 8 dereferenceable(160) %emptyconfig) #5
  ret i1 %call

lpad:                                             ; preds = %entry
  %2 = landingpad { ptr, i32 }
          cleanup
  %3 = extractvalue { ptr, i32 } %2, 0
  store ptr %3, ptr %exn.slot, align 8
  %4 = extractvalue { ptr, i32 } %2, 1
  store i32 %4, ptr %ehselector.slot, align 4
  call void @_ZN18OpenImageIO_v2_6_09ImageSpecD2Ev(ptr noundef nonnull align 8 dereferenceable(160) %emptyconfig) #5
  br label %eh.resume

eh.resume:                                        ; preds = %lpad
  %exn = load ptr, ptr %exn.slot, align 8
  %sel = load i32, ptr %ehselector.slot, align 4
  %lpad.val = insertvalue { ptr, i32 } poison, ptr %exn, 0
  %lpad.val2 = insertvalue { ptr, i32 } %lpad.val, i32 %sel, 1
  resume { ptr, i32 } %lpad.val2
}